target datalayout = "e-m:e-p270:32:32-p271:32:32-p272:64:64-i64:64-i128:128-f80:128-n8:16:32:64-S128"
target triple = "x86_64-pc-linux-gnu"

; Function Attrs: nounwind uwtable
define hidden i32 @_mi_prim_alloc(ptr noundef %0, i64 noundef %1, i64 noundef %2, i1 noundef zeroext %3, i1 noundef zeroext %4, ptr noundef %5, ptr noundef %6, ptr noundef %7) #0 {
  %9 = alloca ptr, align 8
  %10 = alloca i64, align 8
  %11 = alloca i64, align 8
  %12 = alloca i8, align 1
  %13 = alloca i8, align 1
  %14 = alloca ptr, align 8
  %15 = alloca ptr, align 8
  %16 = alloca ptr, align 8
  %17 = alloca i32, align 4
  store ptr %0, ptr %9, align 8, !tbaa !25
  store i64 %1, ptr %10, align 8, !tbaa !8
  store i64 %2, ptr %11, align 8, !tbaa !8
  %18 = zext i1 %3 to i8
  store i8 %18, ptr %12, align 1, !tbaa !21
  %19 = zext i1 %4 to i8
  store i8 %19, ptr %13, align 1, !tbaa !21
  store ptr %5, ptr %14, align 8, !tbaa !26
  store ptr %6, ptr %15, align 8, !tbaa !26
  store ptr %7, ptr %16, align 8, !tbaa !28
  %20 = load ptr, ptr %15, align 8, !tbaa !26
  store i8 1, ptr %20, align 1, !tbaa !21
  call void @llvm.lifetime.start.p0(i64 4, ptr %17) #6
  %21 = load i8, ptr %12, align 1, !tbaa !21, !range !23, !noundef !24
  %22 = trunc i8 %21 to i1
  %23 = select i1 %22, i32 3, i32 0
  store i32 %23, ptr %17, align 4, !tbaa !19
  %24 = load ptr, ptr %9, align 8, !tbaa !25
  %25 = load i64, ptr %10, align 8, !tbaa !8
  %26 = load i64, ptr %11, align 8, !tbaa !8
  %27 = load i32, ptr %17, align 4, !tbaa !19
  %28 = load i8, ptr %13, align 1, !tbaa !21, !range !23, !noundef !24
  %29 = trunc i8 %28 to i1
  %30 = load ptr, ptr %14, align 8, !tbaa !26
  %31 = call ptr @unix_mmap(ptr noundef %24, i64 noundef %25, i64 noundef %26, i32 noundef %27, i1 noundef zeroext false, i1 noundef zeroext %29, ptr noundef %30) #8
  %32 = load ptr, ptr %16, align 8, !tbaa !28
  store ptr %31, ptr %32, align 8, !tbaa !25
  %33 = load ptr, ptr %16, align 8, !tbaa !28
  %34 = load ptr, ptr %33, align 8, !tbaa !25
  %35 = icmp ne ptr %34, null
  br i1 %35, label %36, label %37

36:                                               ; preds = %8
  br label %40

37:                                               ; preds = %8
  %38 = call ptr @__errno_location() #9
  %39 = load i32, ptr %38, align 4, !tbaa !19
  br label %40

40:                                               ; preds = %37, %36
  %41 = phi i32 [ 0, %36 ], [ %39, %37 ]
  call void @llvm.lifetime.end.p0(i64 4, ptr %17) #6
  ret i32 %41
}